target datalayout = "e-m:e-p270:32:32-p271:32:32-p272:64:64-i64:64-i128:128-f80:128-n8:16:32:64-S128"
target triple = "x86_64-pc-linux-gnu"

%struct.simple_ssl_session_st = type { ptr, i32, ptr, i32, ptr }

@.str.412 = private unnamed_addr constant [27 x i8] c"../openssl/apps/s_server.c\00", align 1
@bio_err = external global ptr, align 8
@.str.608 = private unnamed_addr constant [12 x i8] c"get session\00", align 1
@.str.609 = private unnamed_addr constant [24 x i8] c"Error encoding session\0A\00", align 1
@.str.610 = private unnamed_addr constant [19 x i8] c"get session buffer\00", align 1
@.str.611 = private unnamed_addr constant [40 x i8] c"Out of memory adding to external cache\0A\00", align 1
@.str.612 = private unnamed_addr constant [36 x i8] c"Unexpected session encoding length\0A\00", align 1
@first = internal global ptr null, align 8
@.str.613 = private unnamed_addr constant [37 x i8] c"New session added to external cache\0A\00", align 1

; Function Attrs: nounwind uwtable
define internal i32 @add_session(ptr noundef %0, ptr noundef %1) #0 {
  %3 = alloca i32, align 4
  %4 = alloca ptr, align 8
  %5 = alloca ptr, align 8
  %6 = alloca ptr, align 8
  %7 = alloca ptr, align 8
  %8 = alloca i32, align 4
  store ptr %0, ptr %4, align 8, !tbaa !73
  store ptr %1, ptr %5, align 8, !tbaa !66
  call void @llvm.lifetime.start.p0(i64 8, ptr %6) #10
  %9 = call ptr @app_malloc(i64 noundef 40, ptr noundef @.str.608)
  store ptr %9, ptr %6, align 8, !tbaa !118
  call void @llvm.lifetime.start.p0(i64 8, ptr %7) #10
  %10 = load ptr, ptr %5, align 8, !tbaa !66
  %11 = load ptr, ptr %6, align 8, !tbaa !118
  %12 = getelementptr inbounds nuw %struct.simple_ssl_session_st, ptr %11, i32 0, i32 1
  %13 = call ptr @SSL_SESSION_get_id(ptr noundef %10, ptr noundef %12)
  %14 = load ptr, ptr %5, align 8, !tbaa !66
  %15 = call i32 @i2d_SSL_SESSION(ptr noundef %14, ptr noundef null)
  %16 = load ptr, ptr %6, align 8, !tbaa !118
  %17 = getelementptr inbounds nuw %struct.simple_ssl_session_st, ptr %16, i32 0, i32 3
  store i32 %15, ptr %17, align 8, !tbaa !159
  %18 = load ptr, ptr %6, align 8, !tbaa !118
  %19 = getelementptr inbounds nuw %struct.simple_ssl_session_st, ptr %18, i32 0, i32 3
  %20 = load i32, ptr %19, align 8, !tbaa !159
  %21 = icmp slt i32 %20, 0
  br i1 %21, label %22, label %26

22:                                               ; preds = %2
  %23 = load ptr, ptr @bio_err, align 8, !tbaa !35
  %24 = call i32 (ptr, ptr, ...) @BIO_printf(ptr noundef %23, ptr noundef @.str.609)
  %25 = load ptr, ptr %6, align 8, !tbaa !118
  call void @CRYPTO_free(ptr noundef %25, ptr noundef @.str.412, i32 noundef 3848)
  store i32 0, ptr %3, align 4
  store i32 1, ptr %8, align 4
  br label %84

26:                                               ; preds = %2
  %27 = load ptr, ptr %5, align 8, !tbaa !66
  %28 = call ptr @SSL_SESSION_get_id(ptr noundef %27, ptr noundef null)
  %29 = load ptr, ptr %6, align 8, !tbaa !118
  %30 = getelementptr inbounds nuw %struct.simple_ssl_session_st, ptr %29, i32 0, i32 1
  %31 = load i32, ptr %30, align 8, !tbaa !160
  %32 = zext i32 %31 to i64
  %33 = call noalias ptr @CRYPTO_memdup(ptr noundef %28, i64 noundef %32, ptr noundef @.str.412, i32 noundef 3852)
  %34 = load ptr, ptr %6, align 8, !tbaa !118
  %35 = getelementptr inbounds nuw %struct.simple_ssl_session_st, ptr %34, i32 0, i32 0
  store ptr %33, ptr %35, align 8, !tbaa !120
  %36 = load ptr, ptr %6, align 8, !tbaa !118
  %37 = getelementptr inbounds nuw %struct.simple_ssl_session_st, ptr %36, i32 0, i32 3
  %38 = load i32, ptr %37, align 8, !tbaa !159
  %39 = sext i32 %38 to i64
  %40 = call ptr @app_malloc(i64 noundef %39, ptr noundef @.str.610)
  %41 = load ptr, ptr %6, align 8, !tbaa !118
  %42 = getelementptr inbounds nuw %struct.simple_ssl_session_st, ptr %41, i32 0, i32 2
  store ptr %40, ptr %42, align 8, !tbaa !122
  %43 = load ptr, ptr %6, align 8, !tbaa !118
  %44 = getelementptr inbounds nuw %struct.simple_ssl_session_st, ptr %43, i32 0, i32 0
  %45 = load ptr, ptr %44, align 8, !tbaa !120
  %46 = icmp ne ptr %45, null
  br i1 %46, label %57, label %47

47:                                               ; preds = %26
  %48 = load ptr, ptr @bio_err, align 8, !tbaa !35
  %49 = call i32 (ptr, ptr, ...) @BIO_printf(ptr noundef %48, ptr noundef @.str.611)
  %50 = load ptr, ptr %6, align 8, !tbaa !118
  %51 = getelementptr inbounds nuw %struct.simple_ssl_session_st, ptr %50, i32 0, i32 0
  %52 = load ptr, ptr %51, align 8, !tbaa !120
  call void @CRYPTO_free(ptr noundef %52, ptr noundef @.str.412, i32 noundef 3856)
  %53 = load ptr, ptr %6, align 8, !tbaa !118
  %54 = getelementptr inbounds nuw %struct.simple_ssl_session_st, ptr %53, i32 0, i32 2
  %55 = load ptr, ptr %54, align 8, !tbaa !122
  call void @CRYPTO_free(ptr noundef %55, ptr noundef @.str.412, i32 noundef 3857)
  %56 = load ptr, ptr %6, align 8, !tbaa !118
  call void @CRYPTO_free(ptr noundef %56, ptr noundef @.str.412, i32 noundef 3858)
  store i32 0, ptr %3, align 4
  store i32 1, ptr %8, align 4
  br label %84

57:                                               ; preds = %26
  %58 = load ptr, ptr %6, align 8, !tbaa !118
  %59 = getelementptr inbounds nuw %struct.simple_ssl_session_st, ptr %58, i32 0, i32 2
  %60 = load ptr, ptr %59, align 8, !tbaa !122
  store ptr %60, ptr %7, align 8, !tbaa !31
  %61 = load ptr, ptr %5, align 8, !tbaa !66
  %62 = call i32 @i2d_SSL_SESSION(ptr noundef %61, ptr noundef %7)
  %63 = load ptr, ptr %6, align 8, !tbaa !118
  %64 = getelementptr inbounds nuw %struct.simple_ssl_session_st, ptr %63, i32 0, i32 3
  %65 = load i32, ptr %64, align 8, !tbaa !159
  %66 = icmp ne i32 %62, %65
  br i1 %66, label %67, label %77

67:                                               ; preds = %57
  %68 = load ptr, ptr @bio_err, align 8, !tbaa !35
  %69 = call i32 (ptr, ptr, ...) @BIO_printf(ptr noundef %68, ptr noundef @.str.612)
  %70 = load ptr, ptr %6, align 8, !tbaa !118
  %71 = getelementptr inbounds nuw %struct.simple_ssl_session_st, ptr %70, i32 0, i32 0
  %72 = load ptr, ptr %71, align 8, !tbaa !120
  call void @CRYPTO_free(ptr noundef %72, ptr noundef @.str.412, i32 noundef 3866)
  %73 = load ptr, ptr %6, align 8, !tbaa !118
  %74 = getelementptr inbounds nuw %struct.simple_ssl_session_st, ptr %73, i32 0, i32 2
  %75 = load ptr, ptr %74, align 8, !tbaa !122
  call void @CRYPTO_free(ptr noundef %75, ptr noundef @.str.412, i32 noundef 3867)
  %76 = load ptr, ptr %6, align 8, !tbaa !118
  call void @CRYPTO_free(ptr noundef %76, ptr noundef @.str.412, i32 noundef 3868)
  store i32 0, ptr %3, align 4
  store i32 1, ptr %8, align 4
  br label %84

77:                                               ; preds = %57
  %78 = load ptr, ptr @first, align 8, !tbaa !118
  %79 = load ptr, ptr %6, align 8, !tbaa !118
  %80 = getelementptr inbounds nuw %struct.simple_ssl_session_st, ptr %79, i32 0, i32 4
  store ptr %78, ptr %80, align 8, !tbaa !123
  %81 = load ptr, ptr %6, align 8, !tbaa !118
  store ptr %81, ptr @first, align 8, !tbaa !118
  %82 = load ptr, ptr @bio_err, align 8, !tbaa !35
  %83 = call i32 (ptr, ptr, ...) @BIO_printf(ptr noundef %82, ptr noundef @.str.613)
  store i32 0, ptr %3, align 4
  store i32 1, ptr %8, align 4
  br label %84

84:                                               ; preds = %77, %67, %47, %22
  call void @llvm.lifetime.end.p0(i64 8, ptr %7) #10
  call void @llvm.lifetime.end.p0(i64 8, ptr %6) #10
  %85 = load i32, ptr %3, align 4
  ret i32 %85
}