; Function Attrs: nounwind uwtable
define internal noundef i32 @add_session(ptr readnone captures(none) %0, ptr noundef %1) #0 {
  %3 = alloca ptr, align 8
  %4 = tail call ptr @app_malloc(i64 noundef 40, ptr noundef nonnull @.str.608) #14
  call void @llvm.lifetime.start.p0(i64 8, ptr nonnull %3) #14
  %5 = getelementptr inbounds nuw i8, ptr %4, i64 8
  %6 = tail call ptr @SSL_SESSION_get_id(ptr noundef %1, ptr noundef nonnull %5) #14
  %7 = tail call i32 @i2d_SSL_SESSION(ptr noundef %1, ptr noundef null) #14
  %8 = getelementptr inbounds nuw i8, ptr %4, i64 24
  store i32 %7, ptr %8, align 8, !tbaa !96
  %9 = icmp slt i32 %7, 0
  br i1 %9, label %10, label %13

10:                                               ; preds = %2
  %11 = load ptr, ptr @bio_err, align 8, !tbaa !19
  %12 = tail call i32 (ptr, ptr, ...) @BIO_printf(ptr noundef %11, ptr noundef nonnull @.str.609) #14
  tail call void @CRYPTO_free(ptr noundef nonnull %4, ptr noundef nonnull @.str.412, i32 noundef 3848) #14
  br label %41

13:                                               ; preds = %2
  %14 = tail call ptr @SSL_SESSION_get_id(ptr noundef %1, ptr noundef null) #14
  %15 = load i32, ptr %5, align 8, !tbaa !97
  %16 = zext i32 %15 to i64
  %17 = tail call noalias ptr @CRYPTO_memdup(ptr noundef %14, i64 noundef %16, ptr noundef nonnull @.str.412, i32 noundef 3852) #14
  store ptr %17, ptr %4, align 8, !tbaa !53
  %18 = load i32, ptr %8, align 8, !tbaa !96
  %19 = sext i32 %18 to i64
  %20 = tail call ptr @app_malloc(i64 noundef %19, ptr noundef nonnull @.str.610) #14
  %21 = getelementptr inbounds nuw i8, ptr %4, i64 16
  store ptr %20, ptr %21, align 8, !tbaa !55
  %22 = load ptr, ptr %4, align 8, !tbaa !53
  %.not = icmp eq ptr %22, null
  br i1 %.not, label %23, label %28

23:                                               ; preds = %13
  %24 = load ptr, ptr @bio_err, align 8, !tbaa !19
  %25 = tail call i32 (ptr, ptr, ...) @BIO_printf(ptr noundef %24, ptr noundef nonnull @.str.611) #14
  %26 = load ptr, ptr %4, align 8, !tbaa !53
  tail call void @CRYPTO_free(ptr noundef %26, ptr noundef nonnull @.str.412, i32 noundef 3856) #14
  %27 = load ptr, ptr %21, align 8, !tbaa !55
  tail call void @CRYPTO_free(ptr noundef %27, ptr noundef nonnull @.str.412, i32 noundef 3857) #14
  tail call void @CRYPTO_free(ptr noundef nonnull %4, ptr noundef nonnull @.str.412, i32 noundef 3858) #14
  br label %41

28:                                               ; preds = %13
  store ptr %20, ptr %3, align 8, !tbaa !11
  %29 = call i32 @i2d_SSL_SESSION(ptr noundef %1, ptr noundef nonnull %3) #14
  %30 = load i32, ptr %8, align 8, !tbaa !96
  %.not23 = icmp eq i32 %29, %30
  br i1 %.not23, label %36, label %31

31:                                               ; preds = %28
  %32 = load ptr, ptr @bio_err, align 8, !tbaa !19
  %33 = call i32 (ptr, ptr, ...) @BIO_printf(ptr noundef %32, ptr noundef nonnull @.str.612) #14
  %34 = load ptr, ptr %4, align 8, !tbaa !53
  call void @CRYPTO_free(ptr noundef %34, ptr noundef nonnull @.str.412, i32 noundef 3866) #14
  %35 = load ptr, ptr %21, align 8, !tbaa !55
  call void @CRYPTO_free(ptr noundef %35, ptr noundef nonnull @.str.412, i32 noundef 3867) #14
  call void @CRYPTO_free(ptr noundef nonnull %4, ptr noundef nonnull @.str.412, i32 noundef 3868) #14
  br label %41

36:                                               ; preds = %28
  %37 = load ptr, ptr @first, align 8, !tbaa !51
  %38 = getelementptr inbounds nuw i8, ptr %4, i64 32
  store ptr %37, ptr %38, align 8, !tbaa !56
  store ptr %4, ptr @first, align 8, !tbaa !51
  %39 = load ptr, ptr @bio_err, align 8, !tbaa !19
  %40 = call i32 (ptr, ptr, ...) @BIO_printf(ptr noundef %39, ptr noundef nonnull @.str.613) #14
  br label %41

41:                                               ; preds = %36, %31, %23, %10
  call void @llvm.lifetime.end.p0(i64 8, ptr nonnull %3) #14
  ret i32 0
}